; Function Attrs: mustprogress nounwind uwtable
define hidden void @_ZN20ThreadSafepointState7destroyEP10JavaThread(ptr nocapture noundef %0) local_unnamed_addr #2 align 2 {
  %2 = getelementptr inbounds i8, ptr %0, i64 1112
  %3 = load ptr, ptr %2, align 8
  %.not = icmp eq ptr %3, null
  br i1 %.not, label %5, label %4

4:                                                ; preds = %1
  tail call void @_Z8FreeHeapPv(ptr noundef nonnull %3) #16
  store ptr null, ptr %2, align 8
  br label %5

5:                                                ; preds = %4, %1
  ret void
}